target datalayout = "e-m:e-p270:32:32-p271:32:32-p272:64:64-i64:64-i128:128-f80:128-n8:16:32:64-S128"
target triple = "x86_64-pc-linux-gnu"

%struct.H5VL_loc_params_t = type { i32, i32, %union.anon }
%union.anon = type { %struct.H5VL_loc_by_idx }
%struct.H5VL_loc_by_idx = type { ptr, i32, i32, i64, i64 }
%struct.H5VL_object_t = type { ptr, ptr, i64 }

@H5_libinit_g = external global i8, align 1
@H5_libterm_g = external global i8, align 1
@.str = private unnamed_addr constant [103 x i8] c"generated/home/dtcxzyw/WorkSpace/Projects/compilers/llvm-opt-benchmark/bench/hdf5/hdf5/src/H5Adeprec.c\00", align 1
@H5E_FUNC_g = external global i64, align 8
@H5E_CANTINIT_g = external global i64, align 8
@.str.1 = private unnamed_addr constant [30 x i8] c"library initialization failed\00", align 1
@H5E_CANTSET_g = external global i64, align 8
@.str.2 = private unnamed_addr constant [22 x i8] c"can't set API context\00", align 1
@H5E_ARGS_g = external global i64, align 8
@H5E_BADTYPE_g = external global i64, align 8
@.str.3 = private unnamed_addr constant [39 x i8] c"location is not valid for an attribute\00", align 1
@H5E_BADVALUE_g = external global i64, align 8
@.str.4 = private unnamed_addr constant [8 x i8] c"no name\00", align 1
@H5E_ATTR_g = external global i64, align 8
@.str.6 = private unnamed_addr constant [28 x i8] c"invalid location identifier\00", align 1
@H5P_LST_ATTRIBUTE_ACCESS_ID_g = external global i64, align 8
@H5P_LST_DATASET_XFER_ID_g = external global i64, align 8
@H5E_CANTREGISTER_g = external global i64, align 8
@H5E_CLOSEERROR_g = external global i64, align 8
@.str.9 = private unnamed_addr constant [22 x i8] c"can't close attribute\00", align 1
@__func__.H5Aopen_name = private unnamed_addr constant [13 x i8] c"H5Aopen_name\00", align 1
@H5E_CANTOPENOBJ_g = external global i64, align 8
@.str.10 = private unnamed_addr constant [25 x i8] c"unable to open attribute\00", align 1
@.str.11 = private unnamed_addr constant [36 x i8] c"unable to register attribute handle\00", align 1

; Function Attrs: nounwind uwtable
define i64 @H5Aopen_name(i64 noundef %0, ptr noundef %1) #0 {
  %3 = alloca i64, align 8
  %4 = alloca ptr, align 8
  %5 = alloca ptr, align 8
  %6 = alloca ptr, align 8
  %7 = alloca %struct.H5VL_loc_params_t, align 8
  %8 = alloca i64, align 8
  %9 = alloca i8, align 1
  %10 = alloca i8, align 1
  store i64 %0, ptr %3, align 8
  store ptr %1, ptr %4, align 8
  store ptr null, ptr %5, align 8
  store ptr null, ptr %6, align 8
  store i64 -1, ptr %8, align 8
  store i8 0, ptr %9, align 1
  store i8 0, ptr %10, align 1
  %11 = load i8, ptr @H5_libinit_g, align 1
  %12 = trunc i8 %11 to i1
  br i1 %12, label %17, label %13

13:                                               ; preds = %2
  %14 = load i8, ptr @H5_libterm_g, align 1
  %15 = trunc i8 %14 to i1
  %16 = xor i1 %15, true
  br label %17

17:                                               ; preds = %13, %2
  %18 = phi i1 [ false, %2 ], [ %16, %13 ]
  %19 = xor i1 %18, true
  %20 = xor i1 %19, true
  %21 = zext i1 %20 to i32
  %22 = sext i32 %21 to i64
  %23 = icmp ne i64 %22, 0
  br i1 %23, label %24, label %48

24:                                               ; preds = %17
  %25 = call i32 @H5_init_library()
  %26 = icmp slt i32 %25, 0
  %27 = xor i1 %26, true
  %28 = xor i1 %27, true
  %29 = zext i1 %28 to i32
  %30 = sext i32 %29 to i64
  %31 = icmp ne i64 %30, 0
  br i1 %31, label %32, label %47

32:                                               ; preds = %24
  br label %33

33:                                               ; preds = %32
  br label %34

34:                                               ; preds = %33
  br label %35

35:                                               ; preds = %34
  %36 = load i64, ptr @H5E_FUNC_g, align 8
  %37 = load i64, ptr @H5E_CANTINIT_g, align 8
  %38 = call i32 (ptr, ptr, i32, i64, i64, ptr, ...) @H5E_printf_stack(ptr noundef @.str, ptr noundef @__func__.H5Aopen_name, i32 noundef 183, i64 noundef %36, i64 noundef %37, ptr noundef @.str.1)
  br label %39

39:                                               ; preds = %35
  store i8 1, ptr %10, align 1
  %40 = load i8, ptr %10, align 1
  %41 = trunc i8 %40 to i1
  %42 = zext i1 %41 to i8
  store i8 %42, ptr %10, align 1
  br label %43

43:                                               ; preds = %39
  br label %44

44:                                               ; preds = %43
  store i64 -1, ptr %8, align 8
  br label %182

45:                                               ; No predecessors!
  br label %46

46:                                               ; preds = %45
  br label %47

47:                                               ; preds = %46, %24
  br label %48

48:                                               ; preds = %47, %17
  %49 = call i32 @H5CX_push()
  %50 = icmp slt i32 %49, 0
  %51 = xor i1 %50, true
  %52 = xor i1 %51, true
  %53 = zext i1 %52 to i32
  %54 = sext i32 %53 to i64
  %55 = icmp ne i64 %54, 0
  br i1 %55, label %56, label %71

56:                                               ; preds = %48
  br label %57

57:                                               ; preds = %56
  br label %58

58:                                               ; preds = %57
  br label %59

59:                                               ; preds = %58
  %60 = load i64, ptr @H5E_FUNC_g, align 8
  %61 = load i64, ptr @H5E_CANTSET_g, align 8
  %62 = call i32 (ptr, ptr, i32, i64, i64, ptr, ...) @H5E_printf_stack(ptr noundef @.str, ptr noundef @__func__.H5Aopen_name, i32 noundef 183, i64 noundef %60, i64 noundef %61, ptr noundef @.str.2)
  br label %63

63:                                               ; preds = %59
  store i8 1, ptr %10, align 1
  %64 = load i8, ptr %10, align 1
  %65 = trunc i8 %64 to i1
  %66 = zext i1 %65 to i8
  store i8 %66, ptr %10, align 1
  br label %67

67:                                               ; preds = %63
  br label %68

68:                                               ; preds = %67
  store i64 -1, ptr %8, align 8
  br label %182

69:                                               ; No predecessors!
  br label %70

70:                                               ; preds = %69
  br label %72

71:                                               ; preds = %48
  store i8 1, ptr %9, align 1
  br label %72

72:                                               ; preds = %71, %70
  %73 = call i32 @H5E_clear_stack()
  %74 = load i64, ptr %3, align 8
  %75 = call i32 @H5I_get_type(i64 noundef %74)
  %76 = icmp eq i32 7, %75
  br i1 %76, label %77, label %92

77:                                               ; preds = %72
  br label %78

78:                                               ; preds = %77
  br label %79

79:                                               ; preds = %78
  br label %80

80:                                               ; preds = %79
  %81 = load i64, ptr @H5E_ARGS_g, align 8
  %82 = load i64, ptr @H5E_BADTYPE_g, align 8
  %83 = call i32 (ptr, ptr, i32, i64, i64, ptr, ...) @H5E_printf_stack(ptr noundef @.str, ptr noundef @__func__.H5Aopen_name, i32 noundef 187, i64 noundef %81, i64 noundef %82, ptr noundef @.str.3)
  br label %84

84:                                               ; preds = %80
  store i8 1, ptr %10, align 1
  %85 = load i8, ptr %10, align 1
  %86 = trunc i8 %85 to i1
  %87 = zext i1 %86 to i8
  store i8 %87, ptr %10, align 1
  br label %88

88:                                               ; preds = %84
  br label %89

89:                                               ; preds = %88
  store i64 -1, ptr %8, align 8
  br label %182

90:                                               ; No predecessors!
  br label %91

91:                                               ; preds = %90
  br label %92

92:                                               ; preds = %91, %72
  %93 = load ptr, ptr %4, align 8
  %94 = icmp ne ptr %93, null
  br i1 %94, label %95, label %99

95:                                               ; preds = %92
  %96 = load ptr, ptr %4, align 8
  %97 = load i8, ptr %96, align 1
  %98 = icmp ne i8 %97, 0
  br i1 %98, label %114, label %99

99:                                               ; preds = %95, %92
  br label %100

100:                                              ; preds = %99
  br label %101

101:                                              ; preds = %100
  br label %102

102:                                              ; preds = %101
  %103 = load i64, ptr @H5E_ARGS_g, align 8
  %104 = load i64, ptr @H5E_BADVALUE_g, align 8
  %105 = call i32 (ptr, ptr, i32, i64, i64, ptr, ...) @H5E_printf_stack(ptr noundef @.str, ptr noundef @__func__.H5Aopen_name, i32 noundef 189, i64 noundef %103, i64 noundef %104, ptr noundef @.str.4)
  br label %106

106:                                              ; preds = %102
  store i8 1, ptr %10, align 1
  %107 = load i8, ptr %10, align 1
  %108 = trunc i8 %107 to i1
  %109 = zext i1 %108 to i8
  store i8 %109, ptr %10, align 1
  br label %110

110:                                              ; preds = %106
  br label %111

111:                                              ; preds = %110
  store i64 -1, ptr %8, align 8
  br label %182

112:                                              ; No predecessors!
  br label %113

113:                                              ; preds = %112
  br label %114

114:                                              ; preds = %113, %95
  %115 = getelementptr inbounds %struct.H5VL_loc_params_t, ptr %7, i32 0, i32 1
  store i32 0, ptr %115, align 4
  %116 = load i64, ptr %3, align 8
  %117 = call i32 @H5I_get_type(i64 noundef %116)
  %118 = getelementptr inbounds %struct.H5VL_loc_params_t, ptr %7, i32 0, i32 0
  store i32 %117, ptr %118, align 8
  %119 = load i64, ptr %3, align 8
  %120 = call ptr @H5VL_vol_object(i64 noundef %119)
  store ptr %120, ptr %6, align 8
  %121 = icmp eq ptr null, %120
  br i1 %121, label %122, label %137

122:                                              ; preds = %114
  br label %123

123:                                              ; preds = %122
  br label %124

124:                                              ; preds = %123
  br label %125

125:                                              ; preds = %124
  %126 = load i64, ptr @H5E_ARGS_g, align 8
  %127 = load i64, ptr @H5E_BADTYPE_g, align 8
  %128 = call i32 (ptr, ptr, i32, i64, i64, ptr, ...) @H5E_printf_stack(ptr noundef @.str, ptr noundef @__func__.H5Aopen_name, i32 noundef 197, i64 noundef %126, i64 noundef %127, ptr noundef @.str.6)
  br label %129

129:                                              ; preds = %125
  store i8 1, ptr %10, align 1
  %130 = load i8, ptr %10, align 1
  %131 = trunc i8 %130 to i1
  %132 = zext i1 %131 to i8
  store i8 %132, ptr %10, align 1
  br label %133

133:                                              ; preds = %129
  br label %134

134:                                              ; preds = %133
  store i64 -1, ptr %8, align 8
  br label %182

135:                                              ; No predecessors!
  br label %136

136:                                              ; preds = %135
  br label %137

137:                                              ; preds = %136, %114
  %138 = load ptr, ptr %6, align 8
  %139 = load ptr, ptr %4, align 8
  %140 = load i64, ptr @H5P_LST_ATTRIBUTE_ACCESS_ID_g, align 8
  %141 = load i64, ptr @H5P_LST_DATASET_XFER_ID_g, align 8
  %142 = call ptr @H5VL_attr_open(ptr noundef %138, ptr noundef %7, ptr noundef %139, i64 noundef %140, i64 noundef %141, ptr noundef null)
  store ptr %142, ptr %5, align 8
  %143 = icmp eq ptr null, %142
  br i1 %143, label %144, label %159

144:                                              ; preds = %137
  br label %145

145:                                              ; preds = %144
  br label %146

146:                                              ; preds = %145
  br label %147

147:                                              ; preds = %146
  %148 = load i64, ptr @H5E_ATTR_g, align 8
  %149 = load i64, ptr @H5E_CANTOPENOBJ_g, align 8
  %150 = call i32 (ptr, ptr, i32, i64, i64, ptr, ...) @H5E_printf_stack(ptr noundef @.str, ptr noundef @__func__.H5Aopen_name, i32 noundef 202, i64 noundef %148, i64 noundef %149, ptr noundef @.str.10)
  br label %151

151:                                              ; preds = %147
  store i8 1, ptr %10, align 1
  %152 = load i8, ptr %10, align 1
  %153 = trunc i8 %152 to i1
  %154 = zext i1 %153 to i8
  store i8 %154, ptr %10, align 1
  br label %155

155:                                              ; preds = %151
  br label %156

156:                                              ; preds = %155
  store i64 -1, ptr %8, align 8
  br label %182

157:                                              ; No predecessors!
  br label %158

158:                                              ; preds = %157
  br label %159

159:                                              ; preds = %158, %137
  %160 = load ptr, ptr %5, align 8
  %161 = load ptr, ptr %6, align 8
  %162 = getelementptr inbounds %struct.H5VL_object_t, ptr %161, i32 0, i32 1
  %163 = load ptr, ptr %162, align 8
  %164 = call i64 @H5VL_register(i32 noundef 7, ptr noundef %160, ptr noundef %163, i1 noundef zeroext true)
  store i64 %164, ptr %8, align 8
  %165 = icmp slt i64 %164, 0
  br i1 %165, label %166, label %181

166:                                              ; preds = %159
  br label %167

167:                                              ; preds = %166
  br label %168

168:                                              ; preds = %167
  br label %169

169:                                              ; preds = %168
  %170 = load i64, ptr @H5E_ATTR_g, align 8
  %171 = load i64, ptr @H5E_CANTREGISTER_g, align 8
  %172 = call i32 (ptr, ptr, i32, i64, i64, ptr, ...) @H5E_printf_stack(ptr noundef @.str, ptr noundef @__func__.H5Aopen_name, i32 noundef 206, i64 noundef %170, i64 noundef %171, ptr noundef @.str.11)
  br label %173

173:                                              ; preds = %169
  store i8 1, ptr %10, align 1
  %174 = load i8, ptr %10, align 1
  %175 = trunc i8 %174 to i1
  %176 = zext i1 %175 to i8
  store i8 %176, ptr %10, align 1
  br label %177

177:                                              ; preds = %173
  br label %178

178:                                              ; preds = %177
  store i64 -1, ptr %8, align 8
  br label %182

179:                                              ; No predecessors!
  br label %180

180:                                              ; preds = %179
  br label %181

181:                                              ; preds = %180, %159
  br label %182

182:                                              ; preds = %181, %178, %156, %134, %111, %89, %68, %44
  %183 = load i64, ptr %8, align 8
  %184 = icmp eq i64 -1, %183
  br i1 %184, label %185, label %207

185:                                              ; preds = %182
  %186 = load ptr, ptr %5, align 8
  %187 = icmp ne ptr %186, null
  br i1 %187, label %188, label %206

188:                                              ; preds = %185
  %189 = load ptr, ptr %6, align 8
  %190 = load i64, ptr @H5P_LST_DATASET_XFER_ID_g, align 8
  %191 = call i32 @H5VL_attr_close(ptr noundef %189, i64 noundef %190, ptr noundef null)
  %192 = icmp slt i32 %191, 0
  br i1 %192, label %193, label %206

193:                                              ; preds = %188
  br label %194

194:                                              ; preds = %193
  br label %195

195:                                              ; preds = %194
  br label %196

196:                                              ; preds = %195
  %197 = load i64, ptr @H5E_ATTR_g, align 8
  %198 = load i64, ptr @H5E_CLOSEERROR_g, align 8
  %199 = call i32 (ptr, ptr, i32, i64, i64, ptr, ...) @H5E_printf_stack(ptr noundef @.str, ptr noundef @__func__.H5Aopen_name, i32 noundef 212, i64 noundef %197, i64 noundef %198, ptr noundef @.str.9)
  br label %200

200:                                              ; preds = %196
  store i8 1, ptr %10, align 1
  %201 = load i8, ptr %10, align 1
  %202 = trunc i8 %201 to i1
  %203 = zext i1 %202 to i8
  store i8 %203, ptr %10, align 1
  br label %204

204:                                              ; preds = %200
  store i64 -1, ptr %8, align 8
  br label %205

205:                                              ; preds = %204
  br label %206

206:                                              ; preds = %205, %188, %185
  br label %207

207:                                              ; preds = %206, %182
  %208 = load i8, ptr %9, align 1
  %209 = trunc i8 %208 to i1
  %210 = xor i1 %209, true
  %211 = xor i1 %210, true
  %212 = zext i1 %211 to i32
  %213 = sext i32 %212 to i64
  %214 = icmp ne i64 %213, 0
  br i1 %214, label %215, label %217

215:                                              ; preds = %207
  %216 = call i32 @H5CX_pop(i1 noundef zeroext true)
  store i8 0, ptr %9, align 1
  br label %217

217:                                              ; preds = %215, %207
  %218 = load i8, ptr %10, align 1
  %219 = trunc i8 %218 to i1
  %220 = xor i1 %219, true
  %221 = xor i1 %220, true
  %222 = zext i1 %221 to i32
  %223 = sext i32 %222 to i64
  %224 = icmp ne i64 %223, 0
  br i1 %224, label %225, label %227

225:                                              ; preds = %217
  %226 = call i32 @H5E_dump_api_stack()
  br label %227

227:                                              ; preds = %225, %217
  %228 = load i64, ptr %8, align 8
  ret i64 %228
}